(dp0
S'neighbors'
p1
(lp2
(S'192.168.56.100'
p3
I8469
tp4
a(S'192.168.56.100'
p5
I8468
tp6
a(S'192.168.56.101'
p7
I8468
tp8
asS'alpha'
p9
I3
sS'ksize'
p10
I20
sS'id'
p11
S'0"\xd6\xd8\x9a\xab\x8aY\x80\xfa\xb7-~\x841\xc9f\xff\x94\xa8'
p12
s.