(dp0
S'neighbors'
p1
(lp2
(S'192.168.56.104'
p3
I8468
tp4
a(S'192.168.56.104'
p5
I8468
tp6
a(S'192.168.56.104'
p7
I8468
tp8
a(S'192.168.56.104'
p9
I8468
tp10
a(S'192.168.56.104'
p11
I8468
tp12
a(S'192.168.56.104'
p13
I8468
tp14
a(S'192.168.56.104'
p15
I8468
tp16
a(S'192.168.56.104'
p17
I8468
tp18
a(S'192.168.56.104'
p19
I8468
tp20
a(S'192.168.56.104'
p21
I8468
tp22
a(S'192.168.56.104'
p23
I8468
tp24
a(S'192.168.56.104'
p25
I8468
tp26
a(S'192.168.56.104'
p27
I8468
tp28
a(S'192.168.56.104'
p29
I8468
tp30
a(S'192.168.56.104'
p31
I8468
tp32
a(S'192.168.56.104'
p33
I8468
tp34
a(S'192.168.56.104'
p35
I8468
tp36
a(S'192.168.56.104'
p37
I8468
tp38
a(S'192.168.56.104'
p39
I8468
tp40
a(S'192.168.56.104'
p41
I8468
tp42
asS'alpha'
p43
I3
sS'ksize'
p44
I20
sS'id'
p45
S'\xebb\x11\xb3zc\\z\xdd\xf4\x18\x17V8\x08;\xeev#\x8c'
p46
s.