(dp0
S'neighbors'
p1
(lp2
(S'192.168.56.100'
p3
I8468
tp4
a(S'192.168.56.104'
p5
I8468
tp6
a(S'192.168.56.100'
p7
I8469
tp8
asS'alpha'
p9
I3
sS'ksize'
p10
I20
sS'id'
p11
S'\xebb\x11\xb3zc\\z\xdd\xf4\x18\x17V8\x08;\xeev#\x8c'
p12
s.