(dp0
S'neighbors'
p1
(lp2
(S'192.168.56.100'
p3
I8468
tp4
a(S'192.168.56.100'
p5
I8468
tp6
a(S'192.168.56.100'
p7
I8468
tp8
a(S'192.168.56.100'
p9
I8468
tp10
a(S'192.168.56.100'
p11
I8468
tp12
a(S'192.168.56.100'
p13
I8468
tp14
a(S'192.168.56.101'
p15
I8468
tp16
asS'alpha'
p17
I3
sS'ksize'
p18
I20
sS'id'
p19
S'0"\xd6\xd8\x9a\xab\x8aY\x80\xfa\xb7-~\x841\xc9f\xff\x94\xa8'
p20
s.